target datalayout = "e-m:e-p270:32:32-p271:32:32-p272:64:64-i64:64-i128:128-f80:128-n8:16:32:64-S128"
target triple = "x86_64-unknown-linux-gnu"

%"class.folly::Optional" = type { %"struct.folly::Optional<unsigned long>::StorageTriviallyDestructible" }
%"struct.folly::Optional<unsigned long>::StorageTriviallyDestructible" = type <{ %union.anon, i8, [7 x i8] }>
%union.anon = type { i64 }
%"struct.proxygen::http2::PriorityUpdate" = type { i64, i8, i8 }
%"struct.folly::IOBufQueue::Options" = type { i8 }
%"class.proxygen::HTTPTransaction" = type { %"class.folly::HHWheelTimerBase<std::chrono::duration<long, std::ratio<1, 1000>>>::Callback", %"class.folly::DelayedDestructionBase.base", %"class.proxygen::HTTPTransaction::RateLimitCallback", %"class.std::unique_ptr", %"class.folly::IOBufQueue", %"struct.proxygen::HTTPTransaction::BufferMeta", i8, i8, i8, i32, i64, i32, i32, ptr, ptr, ptr, %"struct.proxygen::CompressionInfo", %"class.proxygen::Window", %"class.proxygen::Window", ptr, %"class.std::unique_ptr.12", %"class.std::__cxx11::list", ptr, ptr, %"class.folly::Optional", %"class.folly::Optional.0", %"class.std::set", %"class.std::set", %"struct.proxygen::http2::PriorityUpdate", i64, i64, double, i64, i64, %"class.folly::Optional", %"class.folly::Optional", %"class.folly::Optional", %"class.folly::Optional", i64, %"class.std::map", i24, i16, i64, %"class.std::chrono::time_point", i64, %"class.folly::Optional.27", ptr, i64, i8, %"class.std::map.30", %"class.std::map.35", %"class.proxygen::HTTPTransaction::TxnWebTransport" }
%"class.folly::HHWheelTimerBase<std::chrono::duration<long, std::ratio<1, 1000>>>::Callback" = type { ptr, %"class.boost::intrusive::list_base_hook", ptr, %"class.std::chrono::time_point", i32, %"class.std::shared_ptr" }
%"class.boost::intrusive::list_base_hook" = type { %"class.boost::intrusive::generic_hook" }
%"class.boost::intrusive::generic_hook" = type { %"struct.boost::intrusive::node_holder" }
%"struct.boost::intrusive::node_holder" = type { %"struct.boost::intrusive::list_node" }
%"struct.boost::intrusive::list_node" = type { ptr, ptr }
%"class.std::shared_ptr" = type { %"class.std::__shared_ptr" }
%"class.std::__shared_ptr" = type { ptr, %"class.std::__shared_count" }
%"class.std::__shared_count" = type { ptr }
%"class.folly::DelayedDestructionBase.base" = type <{ ptr, i32 }>
%"class.proxygen::HTTPTransaction::RateLimitCallback" = type { %"class.folly::HHWheelTimerBase<std::chrono::duration<long, std::ratio<1, 1000>>>::Callback", ptr }
%"class.std::unique_ptr" = type { %"struct.std::__uniq_ptr_data" }
%"struct.std::__uniq_ptr_data" = type { %"class.std::__uniq_ptr_impl" }
%"class.std::__uniq_ptr_impl" = type { %"class.std::tuple" }
%"class.std::tuple" = type { %"struct.std::_Tuple_impl" }
%"struct.std::_Tuple_impl" = type { %"struct.std::_Head_base.3" }
%"struct.std::_Head_base.3" = type { ptr }
%"class.folly::IOBufQueue" = type { %"struct.folly::IOBufQueue::Options", i64, %"class.std::unique_ptr.4", ptr, ptr, %"struct.folly::IOBufQueue::WritableRangeCacheData", ptr }
%"class.std::unique_ptr.4" = type { %"struct.std::__uniq_ptr_data.5" }
%"struct.std::__uniq_ptr_data.5" = type { %"class.std::__uniq_ptr_impl.6" }
%"class.std::__uniq_ptr_impl.6" = type { %"class.std::tuple.7" }
%"class.std::tuple.7" = type { %"struct.std::_Tuple_impl.8" }
%"struct.std::_Tuple_impl.8" = type { %"struct.std::_Head_base.11" }
%"struct.std::_Head_base.11" = type { ptr }
%"struct.folly::IOBufQueue::WritableRangeCacheData" = type <{ %"struct.std::pair", i8, [7 x i8] }>
%"struct.std::pair" = type { ptr, ptr }
%"struct.proxygen::HTTPTransaction::BufferMeta" = type { i64 }
%"struct.proxygen::CompressionInfo" = type { %"struct.proxygen::CompressionInfoPart", %"struct.proxygen::CompressionInfoPart" }
%"struct.proxygen::CompressionInfoPart" = type { i32, i32, i32, i32, i32, i32, i32 }
%"class.proxygen::Window" = type { i32, i32 }
%"class.std::unique_ptr.12" = type { %"struct.std::__uniq_ptr_data.13" }
%"struct.std::__uniq_ptr_data.13" = type { %"class.std::__uniq_ptr_impl.14" }
%"class.std::__uniq_ptr_impl.14" = type { %"class.std::tuple.15" }
%"class.std::tuple.15" = type { %"struct.std::_Tuple_impl.16" }
%"struct.std::_Tuple_impl.16" = type { %"struct.std::_Head_base.19" }
%"struct.std::_Head_base.19" = type { ptr }
%"class.std::__cxx11::list" = type { %"class.std::__cxx11::_List_base" }
%"class.std::__cxx11::_List_base" = type { %"struct.std::__cxx11::_List_base<proxygen::HTTPTransaction::Chunk, std::allocator<proxygen::HTTPTransaction::Chunk>>::_List_impl" }
%"struct.std::__cxx11::_List_base<proxygen::HTTPTransaction::Chunk, std::allocator<proxygen::HTTPTransaction::Chunk>>::_List_impl" = type { %"struct.std::__detail::_List_node_header" }
%"struct.std::__detail::_List_node_header" = type { %"struct.std::__detail::_List_node_base", i64 }
%"struct.std::__detail::_List_node_base" = type { ptr, ptr }
%"class.folly::Optional.0" = type { %"struct.folly::Optional<proxygen::HTTPCodec::ExAttributes>::StorageTriviallyDestructible" }
%"struct.folly::Optional<proxygen::HTTPCodec::ExAttributes>::StorageTriviallyDestructible" = type { %union.anon.1, i8, [7 x i8] }
%union.anon.1 = type { %"struct.proxygen::HTTPCodec::ExAttributes" }
%"struct.proxygen::HTTPCodec::ExAttributes" = type <{ i64, i8, [7 x i8] }>
%"class.std::set" = type { %"class.std::_Rb_tree" }
%"class.std::_Rb_tree" = type { %"struct.std::_Rb_tree<unsigned long, unsigned long, std::_Identity<unsigned long>, std::less<unsigned long>>::_Rb_tree_impl" }
%"struct.std::_Rb_tree<unsigned long, unsigned long, std::_Identity<unsigned long>, std::less<unsigned long>>::_Rb_tree_impl" = type { %"struct.std::_Rb_tree_key_compare", %"struct.std::_Rb_tree_header" }
%"struct.std::_Rb_tree_key_compare" = type { %"struct.std::less" }
%"struct.std::less" = type { i8 }
%"struct.std::_Rb_tree_header" = type { %"struct.std::_Rb_tree_node_base", i64 }
%"struct.std::_Rb_tree_node_base" = type { i32, ptr, ptr, ptr }
%"class.std::map" = type { %"class.std::_Rb_tree.23" }
%"class.std::_Rb_tree.23" = type { %"struct.std::_Rb_tree<unsigned long, std::pair<const unsigned long, proxygen::ByteEvent::EventFlags>, std::_Select1st<std::pair<const unsigned long, proxygen::ByteEvent::EventFlags>>, std::less<unsigned long>>::_Rb_tree_impl" }
%"struct.std::_Rb_tree<unsigned long, std::pair<const unsigned long, proxygen::ByteEvent::EventFlags>, std::_Select1st<std::pair<const unsigned long, proxygen::ByteEvent::EventFlags>>, std::less<unsigned long>>::_Rb_tree_impl" = type { %"struct.std::_Rb_tree_key_compare", %"struct.std::_Rb_tree_header" }
%"class.std::chrono::time_point" = type { %"class.std::chrono::duration" }
%"class.std::chrono::duration" = type { i64 }
%"class.folly::Optional.27" = type { %"struct.folly::Optional<std::chrono::duration<long, std::ratio<1, 1000>>>::StorageTriviallyDestructible" }
%"struct.folly::Optional<std::chrono::duration<long, std::ratio<1, 1000>>>::StorageTriviallyDestructible" = type <{ %union.anon.28, i8, [7 x i8] }>
%union.anon.28 = type { %"class.std::chrono::duration.29" }
%"class.std::chrono::duration.29" = type { i64 }
%"class.std::map.30" = type { %"class.std::_Rb_tree.31" }
%"class.std::_Rb_tree.31" = type { %"struct.std::_Rb_tree<unsigned long, std::pair<const unsigned long, proxygen::HTTPTransaction::TxnStreamWriteHandle>, std::_Select1st<std::pair<const unsigned long, proxygen::HTTPTransaction::TxnStreamWriteHandle>>, std::less<unsigned long>>::_Rb_tree_impl" }
%"struct.std::_Rb_tree<unsigned long, std::pair<const unsigned long, proxygen::HTTPTransaction::TxnStreamWriteHandle>, std::_Select1st<std::pair<const unsigned long, proxygen::HTTPTransaction::TxnStreamWriteHandle>>, std::less<unsigned long>>::_Rb_tree_impl" = type { %"struct.std::_Rb_tree_key_compare", %"struct.std::_Rb_tree_header" }
%"class.std::map.35" = type { %"class.std::_Rb_tree.36" }
%"class.std::_Rb_tree.36" = type { %"struct.std::_Rb_tree<unsigned long, std::pair<const unsigned long, proxygen::HTTPTransaction::TxnStreamReadHandle>, std::_Select1st<std::pair<const unsigned long, proxygen::HTTPTransaction::TxnStreamReadHandle>>, std::less<unsigned long>>::_Rb_tree_impl" }
%"struct.std::_Rb_tree<unsigned long, std::pair<const unsigned long, proxygen::HTTPTransaction::TxnStreamReadHandle>, std::_Select1st<std::pair<const unsigned long, proxygen::HTTPTransaction::TxnStreamReadHandle>>, std::less<unsigned long>>::_Rb_tree_impl" = type { %"struct.std::_Rb_tree_key_compare", %"struct.std::_Rb_tree_header" }
%"class.proxygen::HTTPTransaction::TxnWebTransport" = type { %"class.proxygen::WebTransport", ptr }
%"class.proxygen::WebTransport" = type { ptr }
%"class.google::LogMessage" = type { ptr, ptr, %"struct.google::LogMessageTime" }
%"struct.google::LogMessageTime" = type { %struct.tm, i64, i32, i64 }
%struct.tm = type { i32, i32, i32, i32, i32, i32, i32, i32, i32, i64, ptr }
%"class.google::LogMessageFatal" = type { %"class.google::LogMessage" }

@.str = private unnamed_addr constant [141 x i8] c"generated/home/dtcxzyw/WorkSpace/Projects/compilers/llvm-opt-benchmark/bench/proxygen/proxygen/proxygen/lib/http/session/HTTPTransaction.cpp\00", align 1
@.str.6 = private unnamed_addr constant [2 x i8] c" \00", align 1
@.str.25 = private unnamed_addr constant [12 x i8] c", streamID=\00", align 1
@.str.27 = private unnamed_addr constant [24 x i8] c"invariantViolation msg=\00", align 1
@.str.28 = private unnamed_addr constant [11 x i8] c" aborted_=\00", align 1
@.str.29 = private unnamed_addr constant [41 x i8] c"Invariant violation with no handler; ex=\00", align 1

; Function Attrs: mustprogress uwtable
define void @_ZNK8proxygen15HTTPTransaction8describeERSo(ptr noundef nonnull align 8 dereferenceable(912) %this, ptr noundef nonnull align 8 dereferenceable(8) %os) #4 align 2 {
entry:
  %this.addr = alloca ptr, align 8
  %os.addr = alloca ptr, align 8
  store ptr %this, ptr %this.addr, align 8
  store ptr %os, ptr %os.addr, align 8
  %this1 = load ptr, ptr %this.addr, align 8
  %transport_ = getelementptr inbounds %"class.proxygen::HTTPTransaction", ptr %this1, i32 0, i32 14
  %0 = load ptr, ptr %transport_, align 8
  %1 = load ptr, ptr %os.addr, align 8
  %vtable = load ptr, ptr %0, align 8
  %vfn = getelementptr inbounds ptr, ptr %vtable, i64 23
  %2 = load ptr, ptr %vfn, align 8
  call void %2(ptr noundef nonnull align 8 dereferenceable(8) %0, ptr noundef nonnull align 8 dereferenceable(8) %1)
  %3 = load ptr, ptr %os.addr, align 8
  %call = call noundef nonnull align 8 dereferenceable(8) ptr @_ZStlsISt11char_traitsIcEERSt13basic_ostreamIcT_ES5_PKc(ptr noundef nonnull align 8 dereferenceable(8) %3, ptr noundef @.str.25)
  %id_ = getelementptr inbounds %"class.proxygen::HTTPTransaction", ptr %this1, i32 0, i32 10
  %4 = load i64, ptr %id_, align 8
  %call2 = call noundef nonnull align 8 dereferenceable(8) ptr @_ZNSolsEm(ptr noundef nonnull align 8 dereferenceable(8) %call, i64 noundef %4)
  ret void
}

; Function Attrs: mustprogress uwtable
define noundef nonnull align 8 dereferenceable(8) ptr @_ZN8proxygenlsERSoRKNS_15HTTPTransactionE(ptr noundef nonnull align 8 dereferenceable(8) %os, ptr noundef nonnull align 8 dereferenceable(912) %txn) #4 {
entry:
  %os.addr = alloca ptr, align 8
  %txn.addr = alloca ptr, align 8
  store ptr %os, ptr %os.addr, align 8
  store ptr %txn, ptr %txn.addr, align 8
  %0 = load ptr, ptr %txn.addr, align 8
  %1 = load ptr, ptr %os.addr, align 8
  call void @_ZNK8proxygen15HTTPTransaction8describeERSo(ptr noundef nonnull align 8 dereferenceable(912) %0, ptr noundef nonnull align 8 dereferenceable(8) %1)
  %2 = load ptr, ptr %os.addr, align 8
  ret ptr %2
}

; Function Attrs: mustprogress uwtable
define void @_ZN8proxygen15HTTPTransaction18invariantViolationENS_13HTTPExceptionE(ptr noundef nonnull align 8 dereferenceable(912) %this, ptr noundef %ex) #4 align 2 personality ptr @__gxx_personality_v0 {
entry:
  %this.addr = alloca ptr, align 8
  %ex.indirect_addr = alloca ptr, align 8
  %ref.tmp = alloca %"class.google::LogMessage", align 8
  %exn.slot = alloca ptr, align 8
  %ehselector.slot = alloca i32, align 4
  %ref.tmp18 = alloca %"class.google::LogMessageFatal", align 8
  store ptr %this, ptr %this.addr, align 8
  store ptr %ex, ptr %ex.indirect_addr, align 8
  %this1 = load ptr, ptr %this.addr, align 8
  call void @_ZN6google10LogMessageC1EPKcii(ptr noundef nonnull align 8 dereferenceable(96) %ref.tmp, ptr noundef @.str, i32 noundef 651, i32 noundef 2)
  %call = invoke noundef nonnull align 8 dereferenceable(8) ptr @_ZN6google10LogMessage6streamEv(ptr noundef nonnull align 8 dereferenceable(96) %ref.tmp)
          to label %invoke.cont unwind label %lpad

invoke.cont:                                      ; preds = %entry
  %call3 = invoke noundef nonnull align 8 dereferenceable(8) ptr @_ZStlsISt11char_traitsIcEERSt13basic_ostreamIcT_ES5_PKc(ptr noundef nonnull align 8 dereferenceable(8) %call, ptr noundef @.str.27)
          to label %invoke.cont2 unwind label %lpad

invoke.cont2:                                     ; preds = %invoke.cont
  %call4 = call noundef ptr @_ZNK8proxygen9Exception4whatEv(ptr noundef nonnull align 8 dereferenceable(48) %ex) #3
  %call6 = invoke noundef nonnull align 8 dereferenceable(8) ptr @_ZStlsISt11char_traitsIcEERSt13basic_ostreamIcT_ES5_PKc(ptr noundef nonnull align 8 dereferenceable(8) %call3, ptr noundef %call4)
          to label %invoke.cont5 unwind label %lpad

invoke.cont5:                                     ; preds = %invoke.cont2
  %call8 = invoke noundef nonnull align 8 dereferenceable(8) ptr @_ZStlsISt11char_traitsIcEERSt13basic_ostreamIcT_ES5_PKc(ptr noundef nonnull align 8 dereferenceable(8) %call6, ptr noundef @.str.28)
          to label %invoke.cont7 unwind label %lpad

invoke.cont7:                                     ; preds = %invoke.cont5
  %aborted_ = getelementptr inbounds %"class.proxygen::HTTPTransaction", ptr %this1, i32 0, i32 40
  %bf.load = load i32, ptr %aborted_, align 8
  %bf.lshr = lshr i32 %bf.load, 6
  %bf.clear = and i32 %bf.lshr, 1
  %bf.cast = trunc i32 %bf.clear to i1
  %conv = zext i1 %bf.cast to i32
  %call10 = invoke noundef nonnull align 8 dereferenceable(8) ptr @_ZNSolsEj(ptr noundef nonnull align 8 dereferenceable(8) %call8, i32 noundef %conv)
          to label %invoke.cont9 unwind label %lpad

invoke.cont9:                                     ; preds = %invoke.cont7
  %call12 = invoke noundef nonnull align 8 dereferenceable(8) ptr @_ZStlsISt11char_traitsIcEERSt13basic_ostreamIcT_ES5_PKc(ptr noundef nonnull align 8 dereferenceable(8) %call10, ptr noundef @.str.6)
          to label %invoke.cont11 unwind label %lpad

invoke.cont11:                                    ; preds = %invoke.cont9
  %call14 = invoke noundef nonnull align 8 dereferenceable(8) ptr @_ZN8proxygenlsERSoRKNS_15HTTPTransactionE(ptr noundef nonnull align 8 dereferenceable(8) %call12, ptr noundef nonnull align 8 dereferenceable(912) %this1)
          to label %invoke.cont13 unwind label %lpad

invoke.cont13:                                    ; preds = %invoke.cont11
  call void @_ZN6google10LogMessageD1Ev(ptr noundef nonnull align 8 dereferenceable(96) %ref.tmp) #3
  %vtable = load ptr, ptr %this1, align 8
  %vfn = getelementptr inbounds ptr, ptr %vtable, i64 19
  %0 = load ptr, ptr %vfn, align 8
  call void %0(ptr noundef nonnull align 8 dereferenceable(912) %this1)
  %handler_ = getelementptr inbounds %"class.proxygen::HTTPTransaction", ptr %this1, i32 0, i32 13
  %1 = load ptr, ptr %handler_, align 8
  %tobool = icmp ne ptr %1, null
  br i1 %tobool, label %if.then, label %if.else

if.then:                                          ; preds = %invoke.cont13
  %handler_15 = getelementptr inbounds %"class.proxygen::HTTPTransaction", ptr %this1, i32 0, i32 13
  %2 = load ptr, ptr %handler_15, align 8
  %vtable16 = load ptr, ptr %2, align 8
  %vfn17 = getelementptr inbounds ptr, ptr %vtable16, i64 15
  %3 = load ptr, ptr %vfn17, align 8
  call void %3(ptr noundef nonnull align 8 dereferenceable(8) %2, ptr noundef nonnull align 8 dereferenceable(96) %ex) #3
  br label %if.end

lpad:                                             ; preds = %invoke.cont11, %invoke.cont9, %invoke.cont7, %invoke.cont5, %invoke.cont2, %invoke.cont, %entry
  %4 = landingpad { ptr, i32 }
          cleanup
  %5 = extractvalue { ptr, i32 } %4, 0
  store ptr %5, ptr %exn.slot, align 8
  %6 = extractvalue { ptr, i32 } %4, 1
  store i32 %6, ptr %ehselector.slot, align 4
  call void @_ZN6google10LogMessageD1Ev(ptr noundef nonnull align 8 dereferenceable(96) %ref.tmp) #3
  br label %eh.resume

if.else:                                          ; preds = %invoke.cont13
  call void @_ZN6google15LogMessageFatalC1EPKci(ptr noundef nonnull align 8 dereferenceable(96) %ref.tmp18, ptr noundef @.str, i32 noundef 657)
  %call21 = invoke noundef nonnull align 8 dereferenceable(8) ptr @_ZN6google10LogMessage6streamEv(ptr noundef nonnull align 8 dereferenceable(96) %ref.tmp18)
          to label %invoke.cont20 unwind label %lpad19

invoke.cont20:                                    ; preds = %if.else
  %call23 = invoke noundef nonnull align 8 dereferenceable(8) ptr @_ZStlsISt11char_traitsIcEERSt13basic_ostreamIcT_ES5_PKc(ptr noundef nonnull align 8 dereferenceable(8) %call21, ptr noundef @.str.29)
          to label %invoke.cont22 unwind label %lpad19

invoke.cont22:                                    ; preds = %invoke.cont20
  %call24 = call noundef ptr @_ZNK8proxygen9Exception4whatEv(ptr noundef nonnull align 8 dereferenceable(48) %ex) #3
  %call26 = invoke noundef nonnull align 8 dereferenceable(8) ptr @_ZStlsISt11char_traitsIcEERSt13basic_ostreamIcT_ES5_PKc(ptr noundef nonnull align 8 dereferenceable(8) %call23, ptr noundef %call24)
          to label %invoke.cont25 unwind label %lpad19

invoke.cont25:                                    ; preds = %invoke.cont22
  call void @_ZN6google15LogMessageFatalD1Ev(ptr noundef nonnull align 8 dereferenceable(96) %ref.tmp18) #20
  unreachable

lpad19:                                           ; preds = %invoke.cont22, %invoke.cont20, %if.else
  %7 = landingpad { ptr, i32 }
          cleanup
  %8 = extractvalue { ptr, i32 } %7, 0
  store ptr %8, ptr %exn.slot, align 8
  %9 = extractvalue { ptr, i32 } %7, 1
  store i32 %9, ptr %ehselector.slot, align 4
  call void @_ZN6google15LogMessageFatalD1Ev(ptr noundef nonnull align 8 dereferenceable(96) %ref.tmp18) #20
  unreachable

10:                                               ; No predecessors!
  br label %eh.resume

if.end:                                           ; preds = %if.then
  ret void

eh.resume:                                        ; preds = %10, %lpad
  %exn = load ptr, ptr %exn.slot, align 8
  %sel = load i32, ptr %ehselector.slot, align 4
  %lpad.val = insertvalue { ptr, i32 } poison, ptr %exn, 0
  %lpad.val27 = insertvalue { ptr, i32 } %lpad.val, i32 %sel, 1
  resume { ptr, i32 } %lpad.val27
}