; Function Attrs: mustprogress uwtable
define void @_ZN8proxygen15HTTPTransaction18invariantViolationENS_13HTTPExceptionE(ptr noundef nonnull align 8 dereferenceable(912) %this, ptr noundef %ex) local_unnamed_addr #3 align 2 personality ptr @__gxx_personality_v0 {
entry:
  %ref.tmp = alloca %"class.google::LogMessage", align 8
  %ref.tmp18 = alloca %"class.google::LogMessageFatal", align 8
  call void @_ZN6google10LogMessageC1EPKcii(ptr noundef nonnull align 8 dereferenceable(96) %ref.tmp, ptr noundef nonnull @.str, i32 noundef 651, i32 noundef 2)
  %call = invoke noundef nonnull align 8 dereferenceable(8) ptr @_ZN6google10LogMessage6streamEv(ptr noundef nonnull align 8 dereferenceable(96) %ref.tmp)
          to label %invoke.cont unwind label %lpad

invoke.cont:                                      ; preds = %entry
  %call3 = invoke noundef nonnull align 8 dereferenceable(8) ptr @_ZStlsISt11char_traitsIcEERSt13basic_ostreamIcT_ES5_PKc(ptr noundef nonnull align 8 dereferenceable(8) %call, ptr noundef nonnull @.str.27)
          to label %invoke.cont2 unwind label %lpad

invoke.cont2:                                     ; preds = %invoke.cont
  %call4 = call noundef ptr @_ZNK8proxygen9Exception4whatEv(ptr noundef nonnull align 8 dereferenceable(48) %ex) #27
  %call6 = invoke noundef nonnull align 8 dereferenceable(8) ptr @_ZStlsISt11char_traitsIcEERSt13basic_ostreamIcT_ES5_PKc(ptr noundef nonnull align 8 dereferenceable(8) %call3, ptr noundef %call4)
          to label %invoke.cont5 unwind label %lpad

invoke.cont5:                                     ; preds = %invoke.cont2
  %call8 = invoke noundef nonnull align 8 dereferenceable(8) ptr @_ZStlsISt11char_traitsIcEERSt13basic_ostreamIcT_ES5_PKc(ptr noundef nonnull align 8 dereferenceable(8) %call6, ptr noundef nonnull @.str.28)
          to label %invoke.cont7 unwind label %lpad

invoke.cont7:                                     ; preds = %invoke.cont5
  %aborted_ = getelementptr inbounds i8, ptr %this, i64 728
  %bf.load = load i32, ptr %aborted_, align 8
  %0 = lshr i32 %bf.load, 6
  %.lobit = and i32 %0, 1
  %call10 = invoke noundef nonnull align 8 dereferenceable(8) ptr @_ZNSolsEj(ptr noundef nonnull align 8 dereferenceable(8) %call8, i32 noundef %.lobit)
          to label %invoke.cont9 unwind label %lpad

invoke.cont9:                                     ; preds = %invoke.cont7
  %call12 = invoke noundef nonnull align 8 dereferenceable(8) ptr @_ZStlsISt11char_traitsIcEERSt13basic_ostreamIcT_ES5_PKc(ptr noundef nonnull align 8 dereferenceable(8) %call10, ptr noundef nonnull @.str.6)
          to label %invoke.cont11 unwind label %lpad

invoke.cont11:                                    ; preds = %invoke.cont9
  %transport_.i.i = getelementptr inbounds i8, ptr %this, i64 272
  %1 = load ptr, ptr %transport_.i.i, align 8
  %vtable.i.i = load ptr, ptr %1, align 8
  %vfn.i.i = getelementptr inbounds i8, ptr %vtable.i.i, i64 184
  %2 = load ptr, ptr %vfn.i.i, align 8
  invoke void %2(ptr noundef nonnull align 8 dereferenceable(8) %1, ptr noundef nonnull align 8 dereferenceable(8) %call12)
          to label %.noexc unwind label %lpad

.noexc:                                           ; preds = %invoke.cont11
  %call.i.i1 = invoke noundef nonnull align 8 dereferenceable(8) ptr @_ZStlsISt11char_traitsIcEERSt13basic_ostreamIcT_ES5_PKc(ptr noundef nonnull align 8 dereferenceable(8) %call12, ptr noundef nonnull @.str.25)
          to label %call.i.i.noexc unwind label %lpad

call.i.i.noexc:                                   ; preds = %.noexc
  %id_.i.i = getelementptr inbounds i8, ptr %this, i64 248
  %3 = load i64, ptr %id_.i.i, align 8
  %call2.i.i2 = invoke noundef nonnull align 8 dereferenceable(8) ptr @_ZNSolsEm(ptr noundef nonnull align 8 dereferenceable(8) %call.i.i1, i64 noundef %3)
          to label %invoke.cont13 unwind label %lpad

invoke.cont13:                                    ; preds = %call.i.i.noexc
  call void @_ZN6google10LogMessageD1Ev(ptr noundef nonnull align 8 dereferenceable(96) %ref.tmp) #27
  %vtable = load ptr, ptr %this, align 8
  %vfn = getelementptr inbounds i8, ptr %vtable, i64 152
  %4 = load ptr, ptr %vfn, align 8
  call void %4(ptr noundef nonnull align 8 dereferenceable(912) %this)
  %handler_ = getelementptr inbounds i8, ptr %this, i64 264
  %5 = load ptr, ptr %handler_, align 8
  %tobool.not = icmp eq ptr %5, null
  br i1 %tobool.not, label %if.else, label %if.then

if.then:                                          ; preds = %invoke.cont13
  %vtable16 = load ptr, ptr %5, align 8
  %vfn17 = getelementptr inbounds i8, ptr %vtable16, i64 120
  %6 = load ptr, ptr %vfn17, align 8
  call void %6(ptr noundef nonnull align 8 dereferenceable(8) %5, ptr noundef nonnull align 8 dereferenceable(96) %ex) #27
  ret void

lpad:                                             ; preds = %call.i.i.noexc, %.noexc, %invoke.cont11, %invoke.cont9, %invoke.cont7, %invoke.cont5, %invoke.cont2, %invoke.cont, %entry
  %7 = landingpad { ptr, i32 }
          cleanup
  call void @_ZN6google10LogMessageD1Ev(ptr noundef nonnull align 8 dereferenceable(96) %ref.tmp) #27
  resume { ptr, i32 } %7

if.else:                                          ; preds = %invoke.cont13
  call void @_ZN6google15LogMessageFatalC1EPKci(ptr noundef nonnull align 8 dereferenceable(96) %ref.tmp18, ptr noundef nonnull @.str, i32 noundef 657)
  %call21 = invoke noundef nonnull align 8 dereferenceable(8) ptr @_ZN6google10LogMessage6streamEv(ptr noundef nonnull align 8 dereferenceable(96) %ref.tmp18)
          to label %invoke.cont20 unwind label %lpad19

invoke.cont20:                                    ; preds = %if.else
  %call23 = invoke noundef nonnull align 8 dereferenceable(8) ptr @_ZStlsISt11char_traitsIcEERSt13basic_ostreamIcT_ES5_PKc(ptr noundef nonnull align 8 dereferenceable(8) %call21, ptr noundef nonnull @.str.29)
          to label %invoke.cont22 unwind label %lpad19

invoke.cont22:                                    ; preds = %invoke.cont20
  %call24 = call noundef ptr @_ZNK8proxygen9Exception4whatEv(ptr noundef nonnull align 8 dereferenceable(48) %ex) #27
  %call26 = invoke noundef nonnull align 8 dereferenceable(8) ptr @_ZStlsISt11char_traitsIcEERSt13basic_ostreamIcT_ES5_PKc(ptr noundef nonnull align 8 dereferenceable(8) %call23, ptr noundef %call24)
          to label %invoke.cont25 unwind label %lpad19

invoke.cont25:                                    ; preds = %invoke.cont22
  call void @_ZN6google15LogMessageFatalD1Ev(ptr noundef nonnull align 8 dereferenceable(96) %ref.tmp18) #29
  unreachable

lpad19:                                           ; preds = %invoke.cont22, %invoke.cont20, %if.else
  %8 = landingpad { ptr, i32 }
          cleanup
  call void @_ZN6google15LogMessageFatalD1Ev(ptr noundef nonnull align 8 dereferenceable(96) %ref.tmp18) #29
  unreachable
}